target datalayout = "e-m:e-p270:32:32-p271:32:32-p272:64:64-i64:64-i128:128-f80:128-n8:16:32:64-S128"
target triple = "x86_64-pc-linux-gnu"

%"class.Json::Value" = type { %"union.Json::Value::ValueHolder", %struct.anon, %"class.Json::Value::Comments", i64, i64 }
%"union.Json::Value::ValueHolder" = type { i64 }
%struct.anon = type { i16, [2 x i8] }
%"class.Json::Value::Comments" = type { %"class.std::unique_ptr" }
%"class.std::unique_ptr" = type { %"struct.std::__uniq_ptr_data" }
%"struct.std::__uniq_ptr_data" = type { %"class.std::__uniq_ptr_impl" }
%"class.std::__uniq_ptr_impl" = type { %"class.std::tuple" }
%"class.std::tuple" = type { %"struct.std::_Tuple_impl" }
%"struct.std::_Tuple_impl" = type { %"struct.std::_Head_base.14" }
%"struct.std::_Head_base.14" = type { ptr }
%"class.open3d::camera::PinholeCameraParameters" = type { %"class.open3d::utility::IJsonConvertible", %"class.open3d::camera::PinholeCameraIntrinsic", %"class.Eigen::Matrix.3" }
%"class.open3d::utility::IJsonConvertible" = type { ptr }
%"class.open3d::camera::PinholeCameraIntrinsic" = type { %"class.open3d::utility::IJsonConvertible", i32, i32, %"class.Eigen::Matrix" }
%"class.Eigen::Matrix" = type { %"class.Eigen::PlainObjectBase" }
%"class.Eigen::PlainObjectBase" = type { %"class.Eigen::DenseStorage" }
%"class.Eigen::DenseStorage" = type { %"struct.Eigen::internal::plain_array" }
%"struct.Eigen::internal::plain_array" = type { [9 x double] }
%"class.Eigen::Matrix.3" = type { %"class.Eigen::PlainObjectBase.4" }
%"class.Eigen::PlainObjectBase.4" = type { %"class.Eigen::DenseStorage.11" }
%"class.Eigen::DenseStorage.11" = type { %"struct.Eigen::internal::plain_array.12" }
%"struct.Eigen::internal::plain_array.12" = type { [16 x double] }

@.str = private unnamed_addr constant [24 x i8] c"PinholeCameraParameters\00", align 1
@.str.3 = private unnamed_addr constant [11 x i8] c"class_name\00", align 1
@.str.4 = private unnamed_addr constant [14 x i8] c"version_major\00", align 1
@.str.5 = private unnamed_addr constant [14 x i8] c"version_minor\00", align 1
@.str.6 = private unnamed_addr constant [10 x i8] c"extrinsic\00", align 1
@.str.7 = private unnamed_addr constant [10 x i8] c"intrinsic\00", align 1

; Function Attrs: mustprogress ssp uwtable
define noundef zeroext i1 @_ZNK6open3d6camera23PinholeCameraParameters18ConvertToJsonValueERN4Json5ValueE(ptr noundef nonnull align 8 dereferenceable(224) %0, ptr noundef nonnull align 8 dereferenceable(40) %1) unnamed_addr #1 align 2 personality ptr @__gxx_personality_v0 {
  %3 = alloca i1, align 1
  %4 = alloca ptr, align 8
  %5 = alloca ptr, align 8
  %6 = alloca %"class.Json::Value", align 8
  %7 = alloca %"class.Json::Value", align 8
  %8 = alloca ptr, align 8
  %9 = alloca i32, align 4
  %10 = alloca %"class.Json::Value", align 8
  %11 = alloca %"class.Json::Value", align 8
  %12 = alloca i32, align 4
  store ptr %0, ptr %4, align 8, !tbaa !4
  store ptr %1, ptr %5, align 8, !tbaa !9
  %13 = load ptr, ptr %4, align 8
  call void @llvm.lifetime.start.p0(i64 40, ptr %6) #14
  call void @_ZN4Json5ValueC1ENS_9ValueTypeE(ptr noundef nonnull align 8 dereferenceable(40) %6, i32 noundef 0)
  call void @llvm.lifetime.start.p0(i64 40, ptr %7) #14
  invoke void @_ZN4Json5ValueC1EPKc(ptr noundef nonnull align 8 dereferenceable(40) %7, ptr noundef @.str)
          to label %14 unwind label %39

14:                                               ; preds = %2
  %15 = load ptr, ptr %5, align 8, !tbaa !9
  %16 = invoke noundef nonnull align 8 dereferenceable(40) ptr @_ZN4Json5ValueixEPKc(ptr noundef nonnull align 8 dereferenceable(40) %15, ptr noundef @.str.3)
          to label %17 unwind label %43

17:                                               ; preds = %14
  %18 = invoke noundef nonnull align 8 dereferenceable(40) ptr @_ZN4Json5ValueaSEOS0_(ptr noundef nonnull align 8 dereferenceable(40) %16, ptr noundef nonnull align 8 dereferenceable(40) %7)
          to label %19 unwind label %43

19:                                               ; preds = %17
  call void @_ZN4Json5ValueD1Ev(ptr noundef nonnull align 8 dereferenceable(40) %7) #14
  call void @llvm.lifetime.end.p0(i64 40, ptr %7) #14
  call void @llvm.lifetime.start.p0(i64 40, ptr %10) #14
  invoke void @_ZN4Json5ValueC1Ei(ptr noundef nonnull align 8 dereferenceable(40) %10, i32 noundef 1)
          to label %20 unwind label %48

20:                                               ; preds = %19
  %21 = load ptr, ptr %5, align 8, !tbaa !9
  %22 = invoke noundef nonnull align 8 dereferenceable(40) ptr @_ZN4Json5ValueixEPKc(ptr noundef nonnull align 8 dereferenceable(40) %21, ptr noundef @.str.4)
          to label %23 unwind label %52

23:                                               ; preds = %20
  %24 = invoke noundef nonnull align 8 dereferenceable(40) ptr @_ZN4Json5ValueaSEOS0_(ptr noundef nonnull align 8 dereferenceable(40) %22, ptr noundef nonnull align 8 dereferenceable(40) %10)
          to label %25 unwind label %52

25:                                               ; preds = %23
  call void @_ZN4Json5ValueD1Ev(ptr noundef nonnull align 8 dereferenceable(40) %10) #14
  call void @llvm.lifetime.end.p0(i64 40, ptr %10) #14
  call void @llvm.lifetime.start.p0(i64 40, ptr %11) #14
  invoke void @_ZN4Json5ValueC1Ei(ptr noundef nonnull align 8 dereferenceable(40) %11, i32 noundef 0)
          to label %26 unwind label %57

26:                                               ; preds = %25
  %27 = load ptr, ptr %5, align 8, !tbaa !9
  %28 = invoke noundef nonnull align 8 dereferenceable(40) ptr @_ZN4Json5ValueixEPKc(ptr noundef nonnull align 8 dereferenceable(40) %27, ptr noundef @.str.5)
          to label %29 unwind label %61

29:                                               ; preds = %26
  %30 = invoke noundef nonnull align 8 dereferenceable(40) ptr @_ZN4Json5ValueaSEOS0_(ptr noundef nonnull align 8 dereferenceable(40) %28, ptr noundef nonnull align 8 dereferenceable(40) %11)
          to label %31 unwind label %61

31:                                               ; preds = %29
  call void @_ZN4Json5ValueD1Ev(ptr noundef nonnull align 8 dereferenceable(40) %11) #14
  call void @llvm.lifetime.end.p0(i64 40, ptr %11) #14
  %32 = getelementptr inbounds nuw %"class.open3d::camera::PinholeCameraParameters", ptr %13, i32 0, i32 2
  %33 = load ptr, ptr %5, align 8, !tbaa !9
  %34 = invoke noundef nonnull align 8 dereferenceable(40) ptr @_ZN4Json5ValueixEPKc(ptr noundef nonnull align 8 dereferenceable(40) %33, ptr noundef @.str.6)
          to label %35 unwind label %66

35:                                               ; preds = %31
  %36 = invoke noundef zeroext i1 @_ZN6open3d7utility16IJsonConvertible24EigenMatrix4dToJsonArrayERKN5Eigen6MatrixIdLi4ELi4ELi2ELi4ELi4EEERN4Json5ValueE(ptr noundef nonnull align 8 dereferenceable(128) %32, ptr noundef nonnull align 8 dereferenceable(40) %34)
          to label %37 unwind label %66

37:                                               ; preds = %35
  br i1 %36, label %70, label %38

38:                                               ; preds = %37
  store i1 false, ptr %3, align 1
  store i32 1, ptr %12, align 4
  br label %79

39:                                               ; preds = %2
  %40 = landingpad { ptr, i32 }
          cleanup
  %41 = extractvalue { ptr, i32 } %40, 0
  store ptr %41, ptr %8, align 8
  %42 = extractvalue { ptr, i32 } %40, 1
  store i32 %42, ptr %9, align 4
  br label %47

43:                                               ; preds = %17, %14
  %44 = landingpad { ptr, i32 }
          cleanup
  %45 = extractvalue { ptr, i32 } %44, 0
  store ptr %45, ptr %8, align 8
  %46 = extractvalue { ptr, i32 } %44, 1
  store i32 %46, ptr %9, align 4
  call void @_ZN4Json5ValueD1Ev(ptr noundef nonnull align 8 dereferenceable(40) %7) #14
  br label %47

47:                                               ; preds = %43, %39
  call void @llvm.lifetime.end.p0(i64 40, ptr %7) #14
  br label %81

48:                                               ; preds = %19
  %49 = landingpad { ptr, i32 }
          cleanup
  %50 = extractvalue { ptr, i32 } %49, 0
  store ptr %50, ptr %8, align 8
  %51 = extractvalue { ptr, i32 } %49, 1
  store i32 %51, ptr %9, align 4
  br label %56

52:                                               ; preds = %23, %20
  %53 = landingpad { ptr, i32 }
          cleanup
  %54 = extractvalue { ptr, i32 } %53, 0
  store ptr %54, ptr %8, align 8
  %55 = extractvalue { ptr, i32 } %53, 1
  store i32 %55, ptr %9, align 4
  call void @_ZN4Json5ValueD1Ev(ptr noundef nonnull align 8 dereferenceable(40) %10) #14
  br label %56

56:                                               ; preds = %52, %48
  call void @llvm.lifetime.end.p0(i64 40, ptr %10) #14
  br label %81

57:                                               ; preds = %25
  %58 = landingpad { ptr, i32 }
          cleanup
  %59 = extractvalue { ptr, i32 } %58, 0
  store ptr %59, ptr %8, align 8
  %60 = extractvalue { ptr, i32 } %58, 1
  store i32 %60, ptr %9, align 4
  br label %65

61:                                               ; preds = %29, %26
  %62 = landingpad { ptr, i32 }
          cleanup
  %63 = extractvalue { ptr, i32 } %62, 0
  store ptr %63, ptr %8, align 8
  %64 = extractvalue { ptr, i32 } %62, 1
  store i32 %64, ptr %9, align 4
  call void @_ZN4Json5ValueD1Ev(ptr noundef nonnull align 8 dereferenceable(40) %11) #14
  br label %65

65:                                               ; preds = %61, %57
  call void @llvm.lifetime.end.p0(i64 40, ptr %11) #14
  br label %81

66:                                               ; preds = %74, %70, %35, %31
  %67 = landingpad { ptr, i32 }
          cleanup
  %68 = extractvalue { ptr, i32 } %67, 0
  store ptr %68, ptr %8, align 8
  %69 = extractvalue { ptr, i32 } %67, 1
  store i32 %69, ptr %9, align 4
  br label %81

70:                                               ; preds = %37
  %71 = getelementptr inbounds nuw %"class.open3d::camera::PinholeCameraParameters", ptr %13, i32 0, i32 1
  %72 = load ptr, ptr %5, align 8, !tbaa !9
  %73 = invoke noundef nonnull align 8 dereferenceable(40) ptr @_ZN4Json5ValueixEPKc(ptr noundef nonnull align 8 dereferenceable(40) %72, ptr noundef @.str.7)
          to label %74 unwind label %66

74:                                               ; preds = %70
  %75 = invoke noundef zeroext i1 @_ZNK6open3d6camera22PinholeCameraIntrinsic18ConvertToJsonValueERN4Json5ValueE(ptr noundef nonnull align 8 dereferenceable(88) %71, ptr noundef nonnull align 8 dereferenceable(40) %73)
          to label %76 unwind label %66

76:                                               ; preds = %74
  br i1 %75, label %78, label %77

77:                                               ; preds = %76
  store i1 false, ptr %3, align 1
  store i32 1, ptr %12, align 4
  br label %79

78:                                               ; preds = %76
  store i1 true, ptr %3, align 1
  store i32 1, ptr %12, align 4
  br label %79

79:                                               ; preds = %78, %77, %38
  call void @_ZN4Json5ValueD1Ev(ptr noundef nonnull align 8 dereferenceable(40) %6) #14
  call void @llvm.lifetime.end.p0(i64 40, ptr %6) #14
  %80 = load i1, ptr %3, align 1
  ret i1 %80

81:                                               ; preds = %66, %65, %56, %47
  call void @_ZN4Json5ValueD1Ev(ptr noundef nonnull align 8 dereferenceable(40) %6) #14
  call void @llvm.lifetime.end.p0(i64 40, ptr %6) #14
  br label %82

82:                                               ; preds = %81
  %83 = load ptr, ptr %8, align 8
  %84 = load i32, ptr %9, align 4
  %85 = insertvalue { ptr, i32 } poison, ptr %83, 0
  %86 = insertvalue { ptr, i32 } %85, i32 %84, 1
  resume { ptr, i32 } %86
}