; Function Attrs: mustprogress ssp uwtable
define noundef zeroext i1 @_ZNK6open3d6camera23PinholeCameraParameters18ConvertToJsonValueERN4Json5ValueE(ptr noundef nonnull align 8 dereferenceable(224) %0, ptr noundef nonnull align 8 dereferenceable(40) %1) unnamed_addr #1 align 2 personality ptr @__gxx_personality_v0 {
  %3 = alloca %"class.Json::Value", align 8
  %4 = alloca %"class.Json::Value", align 8
  %5 = alloca %"class.Json::Value", align 8
  %6 = alloca %"class.Json::Value", align 8
  call void @llvm.lifetime.start.p0(i64 40, ptr nonnull %3) #12
  call void @_ZN4Json5ValueC1ENS_9ValueTypeE(ptr noundef nonnull align 8 dereferenceable(40) %3, i32 noundef 0)
  call void @llvm.lifetime.start.p0(i64 40, ptr nonnull %4) #12
  invoke void @_ZN4Json5ValueC1EPKc(ptr noundef nonnull align 8 dereferenceable(40) %4, ptr noundef nonnull @.str)
          to label %7 unwind label %27

7:                                                ; preds = %2
  %8 = invoke noundef nonnull align 8 dereferenceable(40) ptr @_ZN4Json5ValueixEPKc(ptr noundef nonnull align 8 dereferenceable(40) %1, ptr noundef nonnull @.str.3)
          to label %9 unwind label %29

9:                                                ; preds = %7
  %10 = invoke noundef nonnull align 8 dereferenceable(40) ptr @_ZN4Json5ValueaSEOS0_(ptr noundef nonnull align 8 dereferenceable(40) %8, ptr noundef nonnull align 8 dereferenceable(40) %4)
          to label %11 unwind label %29

11:                                               ; preds = %9
  call void @_ZN4Json5ValueD1Ev(ptr noundef nonnull align 8 dereferenceable(40) %4) #12
  call void @llvm.lifetime.end.p0(i64 40, ptr nonnull %4) #12
  call void @llvm.lifetime.start.p0(i64 40, ptr nonnull %5) #12
  invoke void @_ZN4Json5ValueC1Ei(ptr noundef nonnull align 8 dereferenceable(40) %5, i32 noundef 1)
          to label %12 unwind label %32

12:                                               ; preds = %11
  %13 = invoke noundef nonnull align 8 dereferenceable(40) ptr @_ZN4Json5ValueixEPKc(ptr noundef nonnull align 8 dereferenceable(40) %1, ptr noundef nonnull @.str.4)
          to label %14 unwind label %34

14:                                               ; preds = %12
  %15 = invoke noundef nonnull align 8 dereferenceable(40) ptr @_ZN4Json5ValueaSEOS0_(ptr noundef nonnull align 8 dereferenceable(40) %13, ptr noundef nonnull align 8 dereferenceable(40) %5)
          to label %16 unwind label %34

16:                                               ; preds = %14
  call void @_ZN4Json5ValueD1Ev(ptr noundef nonnull align 8 dereferenceable(40) %5) #12
  call void @llvm.lifetime.end.p0(i64 40, ptr nonnull %5) #12
  call void @llvm.lifetime.start.p0(i64 40, ptr nonnull %6) #12
  invoke void @_ZN4Json5ValueC1Ei(ptr noundef nonnull align 8 dereferenceable(40) %6, i32 noundef 0)
          to label %17 unwind label %37

17:                                               ; preds = %16
  %18 = invoke noundef nonnull align 8 dereferenceable(40) ptr @_ZN4Json5ValueixEPKc(ptr noundef nonnull align 8 dereferenceable(40) %1, ptr noundef nonnull @.str.5)
          to label %19 unwind label %39

19:                                               ; preds = %17
  %20 = invoke noundef nonnull align 8 dereferenceable(40) ptr @_ZN4Json5ValueaSEOS0_(ptr noundef nonnull align 8 dereferenceable(40) %18, ptr noundef nonnull align 8 dereferenceable(40) %6)
          to label %21 unwind label %39

21:                                               ; preds = %19
  call void @_ZN4Json5ValueD1Ev(ptr noundef nonnull align 8 dereferenceable(40) %6) #12
  call void @llvm.lifetime.end.p0(i64 40, ptr nonnull %6) #12
  %22 = invoke noundef nonnull align 8 dereferenceable(40) ptr @_ZN4Json5ValueixEPKc(ptr noundef nonnull align 8 dereferenceable(40) %1, ptr noundef nonnull @.str.6)
          to label %23 unwind label %42

23:                                               ; preds = %21
  %24 = getelementptr inbounds nuw i8, ptr %0, i64 96
  %25 = invoke noundef zeroext i1 @_ZN6open3d7utility16IJsonConvertible24EigenMatrix4dToJsonArrayERKN5Eigen6MatrixIdLi4ELi4ELi2ELi4ELi4EEERN4Json5ValueE(ptr noundef nonnull align 8 dereferenceable(128) %24, ptr noundef nonnull align 8 dereferenceable(40) %22)
          to label %26 unwind label %42

26:                                               ; preds = %23
  br i1 %25, label %44, label %49

27:                                               ; preds = %2
  %28 = landingpad { ptr, i32 }
          cleanup
  br label %31

29:                                               ; preds = %9, %7
  %30 = landingpad { ptr, i32 }
          cleanup
  call void @_ZN4Json5ValueD1Ev(ptr noundef nonnull align 8 dereferenceable(40) %4) #12
  br label %31

31:                                               ; preds = %29, %27
  %.pn = phi { ptr, i32 } [ %30, %29 ], [ %28, %27 ]
  call void @llvm.lifetime.end.p0(i64 40, ptr nonnull %4) #12
  br label %50

32:                                               ; preds = %11
  %33 = landingpad { ptr, i32 }
          cleanup
  br label %36

34:                                               ; preds = %14, %12
  %35 = landingpad { ptr, i32 }
          cleanup
  call void @_ZN4Json5ValueD1Ev(ptr noundef nonnull align 8 dereferenceable(40) %5) #12
  br label %36

36:                                               ; preds = %34, %32
  %.pn14 = phi { ptr, i32 } [ %35, %34 ], [ %33, %32 ]
  call void @llvm.lifetime.end.p0(i64 40, ptr nonnull %5) #12
  br label %50

37:                                               ; preds = %16
  %38 = landingpad { ptr, i32 }
          cleanup
  br label %41

39:                                               ; preds = %19, %17
  %40 = landingpad { ptr, i32 }
          cleanup
  call void @_ZN4Json5ValueD1Ev(ptr noundef nonnull align 8 dereferenceable(40) %6) #12
  br label %41

41:                                               ; preds = %39, %37
  %.pn16 = phi { ptr, i32 } [ %40, %39 ], [ %38, %37 ]
  call void @llvm.lifetime.end.p0(i64 40, ptr nonnull %6) #12
  br label %50

42:                                               ; preds = %46, %44, %23, %21
  %43 = landingpad { ptr, i32 }
          cleanup
  br label %50

44:                                               ; preds = %26
  %45 = invoke noundef nonnull align 8 dereferenceable(40) ptr @_ZN4Json5ValueixEPKc(ptr noundef nonnull align 8 dereferenceable(40) %1, ptr noundef nonnull @.str.7)
          to label %46 unwind label %42

46:                                               ; preds = %44
  %47 = getelementptr inbounds nuw i8, ptr %0, i64 8
  %48 = invoke noundef zeroext i1 @_ZNK6open3d6camera22PinholeCameraIntrinsic18ConvertToJsonValueERN4Json5ValueE(ptr noundef nonnull align 8 dereferenceable(88) %47, ptr noundef nonnull align 8 dereferenceable(40) %45)
          to label %49 unwind label %42

49:                                               ; preds = %46, %26
  %.012 = phi i1 [ false, %26 ], [ %48, %46 ]
  call void @_ZN4Json5ValueD1Ev(ptr noundef nonnull align 8 dereferenceable(40) %3) #12
  call void @llvm.lifetime.end.p0(i64 40, ptr nonnull %3) #12
  ret i1 %.012

50:                                               ; preds = %42, %41, %36, %31
  %.pn18 = phi { ptr, i32 } [ %43, %42 ], [ %.pn16, %41 ], [ %.pn14, %36 ], [ %.pn, %31 ]
  call void @_ZN4Json5ValueD1Ev(ptr noundef nonnull align 8 dereferenceable(40) %3) #12
  call void @llvm.lifetime.end.p0(i64 40, ptr nonnull %3) #12
  resume { ptr, i32 } %.pn18
}